; ModuleID = 'source-C-CXX/18/35.c'
source_filename = "source-C-CXX/18/35.c"
target datalayout = "e-m:e-p270:32:32-p271:32:32-p272:64:64-i64:64-f80:128-n8:16:32:64-S128"
target triple = "x86_64-pc-linux-gnu"

@.str = private unnamed_addr constant [3 x i8] c"%s\00", align 1
@.str.1 = private unnamed_addr constant [4 x i8] c"%s \00", align 1

; Function Attrs: nofree nounwind sspstrong uwtable
define dso_local i32 @main() local_unnamed_addr #0 {
  %1 = alloca [100 x [100 x i8]], align 16
  %2 = getelementptr inbounds [100 x [100 x i8]], [100 x [100 x i8]]* %1, i64 0, i64 0, i64 0
  call void @llvm.lifetime.start.p0i8(i64 10000, i8* nonnull %2) #6
  call void @llvm.memset.p0i8.i64(i8* noundef nonnull align 16 dereferenceable(10000) %2, i8 0, i64 10000, i1 false)
  br label %3

3:                                                ; preds = %3, %0
  %4 = phi i64 [ 0, %0 ], [ %11, %3 ]
  %5 = phi i32 [ 0, %0 ], [ %8, %3 ]
  %6 = getelementptr inbounds [100 x [100 x i8]], [100 x [100 x i8]]* %1, i64 0, i64 %4, i64 0
  %7 = call i32 (i8*, ...) @__isoc99_scanf(i8* getelementptr inbounds ([3 x i8], [3 x i8]* @.str, i64 0, i64 0), i8* nonnull %6)
  %8 = add nsw i32 %7, %5
  %9 = load i8, i8* %6, align 4, !tbaa !5
  %10 = icmp slt i8 %9, 2
  %11 = add nuw nsw i64 %4, 1
  %12 = icmp eq i64 %11, 100
  %13 = select i1 %10, i1 true, i1 %12
  br i1 %13, label %14, label %3, !llvm.loop !8

14:                                               ; preds = %3
  %15 = add nsw i32 %8, -1
  %16 = sext i32 %15 to i64
  %17 = getelementptr inbounds [100 x [100 x i8]], [100 x [100 x i8]]* %1, i64 0, i64 %16, i64 0
  %18 = sext i32 %8 to i64
  %19 = getelementptr inbounds [100 x [100 x i8]], [100 x [100 x i8]]* %1, i64 0, i64 %18, i64 0
  br label %25

20:                                               ; preds = %32
  %21 = add i32 %8, -2
  %22 = icmp sgt i32 %8, 2
  br i1 %22, label %23, label %41

23:                                               ; preds = %20
  %24 = zext i32 %21 to i64
  br label %35

25:                                               ; preds = %14, %32
  %26 = phi i64 [ 0, %14 ], [ %33, %32 ]
  %27 = getelementptr inbounds [100 x [100 x i8]], [100 x [100 x i8]]* %1, i64 0, i64 %26, i64 0
  %28 = call i32 @strcmp(i8* noundef nonnull %27, i8* noundef nonnull %17) #7
  %29 = icmp eq i32 %28, 0
  br i1 %29, label %30, label %32

30:                                               ; preds = %25
  %31 = call i8* @strcpy(i8* noundef nonnull %27, i8* noundef nonnull %19) #6
  br label %32

32:                                               ; preds = %25, %30
  %33 = add nuw nsw i64 %26, 1
  %34 = icmp eq i64 %33, 100
  br i1 %34, label %20, label %25, !llvm.loop !10

35:                                               ; preds = %23, %35
  %36 = phi i64 [ 0, %23 ], [ %39, %35 ]
  %37 = getelementptr inbounds [100 x [100 x i8]], [100 x [100 x i8]]* %1, i64 0, i64 %36, i64 0
  %38 = call i32 (i8*, ...) @printf(i8* nonnull dereferenceable(1) getelementptr inbounds ([4 x i8], [4 x i8]* @.str.1, i64 0, i64 0), i8* nonnull %37)
  %39 = add nuw nsw i64 %36, 1
  %40 = icmp eq i64 %39, %24
  br i1 %40, label %41, label %35, !llvm.loop !11

41:                                               ; preds = %35, %20
  %42 = sext i32 %21 to i64
  %43 = getelementptr inbounds [100 x [100 x i8]], [100 x [100 x i8]]* %1, i64 0, i64 %42, i64 0
  %44 = call i32 (i8*, ...) @printf(i8* nonnull dereferenceable(1) getelementptr inbounds ([3 x i8], [3 x i8]* @.str, i64 0, i64 0), i8* nonnull %43)
  call void @llvm.lifetime.end.p0i8(i64 10000, i8* nonnull %2) #6
  ret i32 0
}

; Function Attrs: argmemonly mustprogress nofree nosync nounwind willreturn
declare void @llvm.lifetime.start.p0i8(i64 immarg, i8* nocapture) #1

; Function Attrs: argmemonly mustprogress nofree nounwind willreturn writeonly
declare void @llvm.memset.p0i8.i64(i8* nocapture writeonly, i8, i64, i1 immarg) #2

; Function Attrs: nofree nounwind
declare noundef i32 @__isoc99_scanf(i8* nocapture noundef readonly, ...) local_unnamed_addr #3

; Function Attrs: argmemonly mustprogress nofree nounwind readonly willreturn
declare i32 @strcmp(i8* nocapture, i8* nocapture) local_unnamed_addr #4

; Function Attrs: argmemonly mustprogress nofree nounwind willreturn
declare i8* @strcpy(i8* noalias returned writeonly, i8* noalias nocapture readonly) local_unnamed_addr #5

; Function Attrs: nofree nounwind
declare noundef i32 @printf(i8* nocapture noundef readonly, ...) local_unnamed_addr #3

; Function Attrs: argmemonly mustprogress nofree nosync nounwind willreturn
declare void @llvm.lifetime.end.p0i8(i64 immarg, i8* nocapture) #1


!llvm.module.flags = !{!0, !1, !2, !3}
!llvm.ident = !{!4}

!0 = !{i32 1, !"wchar_size", i32 4}
!1 = !{i32 7, !"PIC Level", i32 2}
!2 = !{i32 7, !"PIE Level", i32 2}
!3 = !{i32 7, !"uwtable", i32 1}
!4 = !{!"clang version 13.0.0"}
!5 = !{!6, !6, i64 0}
!6 = !{!"omnipotent char", !7, i64 0}
!7 = !{!"Simple C/C++ TBAA"}
!8 = distinct !{!8, !9}
!9 = !{!"llvm.loop.mustprogress"}
!10 = distinct !{!10, !9}
!11 = distinct !{!11, !9}
